Certificate:
    Data:
        Version: 3 (0x2)
        Serial Number: 1 (0x1)
        Signature Algorithm: sha256WithRSAEncryption
        Issuer: DC=local, DC=l-space, O=L-Space Inc, OU=L-Space Signing CA, CN=L-Space Signing CA
        Validity
            Not Before: Jun  3 19:29:35 2020 GMT
            Not After : Jun  3 19:29:35 2022 GMT
        Subject: DC=local, DC=l-space, O=L-Space Inc, CN=ntop.l-space.local
        Subject Public Key Info:
            Public Key Algorithm: rsaEncryption
                RSA Public-Key: (4096 bit)
                Modulus:
                    00:a6:e5:2e:f6:32:25:7c:d5:e2:e0:66:47:60:f9:
                    df:6d:06:8b:8a:19:d6:da:e5:ca:4d:07:f4:b4:c4:
                    d8:09:c5:d8:67:cd:4e:8e:b8:ac:bc:f1:fb:1c:f8:
                    c1:9a:38:21:48:ce:73:5d:b6:de:8d:75:7e:26:e5:
                    37:d2:82:91:0e:6a:6b:e7:d5:c7:67:ab:b2:f4:fb:
                    b1:e5:1a:6b:41:55:26:8e:56:98:e9:6c:ce:cf:11:
                    5e:45:38:4e:7e:38:81:0a:19:8a:c5:6e:9f:dd:dc:
                    b6:ae:ab:90:dc:4d:82:87:90:b8:09:16:1f:b0:56:
                    83:9b:3a:3d:59:30:71:66:7a:98:51:2a:7e:db:df:
                    8e:b1:50:ee:93:31:a2:d4:52:7a:79:e1:44:18:9a:
                    c9:df:2e:0e:78:c9:8a:9f:f7:a2:97:7c:5d:0f:a1:
                    22:00:89:73:7f:44:6e:62:91:94:3b:7e:38:2e:70:
                    8e:17:f4:ef:9f:81:67:12:ae:74:48:73:da:05:3e:
                    84:ed:7c:a3:20:2b:75:97:87:2c:3c:55:a2:57:e7:
                    28:1f:ce:a2:e5:0e:51:54:28:4a:33:c0:a5:d0:a4:
                    d3:7f:f9:23:63:1c:db:8b:80:a4:99:49:a9:39:e2:
                    10:d1:56:e5:ae:eb:e4:af:ad:16:35:d6:b8:a2:17:
                    88:0c:91:10:47:4e:22:bd:83:7b:e9:98:6a:b2:f6:
                    d1:18:c1:b4:90:ec:51:70:86:c6:83:d2:e6:67:52:
                    e0:eb:0a:b4:04:3d:d9:7e:93:d5:96:f4:8a:d6:a4:
                    63:22:d8:6b:79:e2:78:18:77:c7:cf:10:47:57:7f:
                    32:22:cd:8f:df:43:9b:c5:5a:91:98:ea:44:c1:f6:
                    86:27:07:fd:ec:31:47:a4:47:9b:33:9c:75:75:1f:
                    eb:da:52:9e:10:ae:ca:6a:74:69:dc:e8:e7:34:cd:
                    d3:b0:bc:2e:49:e3:21:0b:d6:a7:d6:d7:59:02:25:
                    6b:33:bc:57:43:a7:b6:a0:dd:2e:cd:2c:f0:aa:66:
                    1c:63:01:42:75:dd:fa:88:65:66:e2:db:0f:2b:4b:
                    e9:29:f7:59:3c:d2:e6:94:cc:b8:54:5d:f3:d6:62:
                    50:13:cb:8d:d1:e1:9c:c5:8a:50:c7:fa:f4:1c:05:
                    68:44:a1:a9:36:2e:47:3d:14:9e:66:64:ce:e9:d3:
                    f0:c4:54:3f:4b:2d:81:a2:be:da:81:49:64:2e:43:
                    ea:6b:a3:8f:71:b3:5b:59:c7:fd:99:21:ab:88:f8:
                    fb:d5:95:9d:56:0a:41:99:da:fb:5c:e3:ce:35:05:
                    05:1d:a9:08:69:86:13:49:41:49:7f:76:08:ec:2b:
                    06:ad:0d
                Exponent: 65537 (0x10001)
        X509v3 extensions:
            X509v3 Key Usage: critical
                Digital Signature, Key Encipherment
            X509v3 Basic Constraints: 
                CA:FALSE
            X509v3 Extended Key Usage: 
                TLS Web Server Authentication, TLS Web Client Authentication
            X509v3 Subject Key Identifier: 
                DE:2B:A7:B8:D6:78:8D:9F:B8:65:23:54:5F:0E:7A:23:35:2F:8A:F2
            X509v3 Authority Key Identifier: 
                keyid:4A:12:FF:88:E8:A0:C9:BA:BC:48:43:D6:EE:14:0A:0C:F0:7D:FA:82

            X509v3 Subject Alternative Name: 
                DNS:ntop.l-space.local
    Signature Algorithm: sha256WithRSAEncryption
         73:5d:98:87:3c:a2:1a:b1:33:82:af:53:f4:d1:89:12:7e:77:
         84:f8:b4:31:4a:1d:8b:cc:df:88:73:3c:7f:9e:dd:83:ca:fb:
         4e:8c:38:1a:29:d8:d2:4b:d2:5c:1c:17:86:2f:88:80:b8:5b:
         9b:c5:9a:74:ae:1b:b9:72:bf:b8:d7:79:3a:be:4b:4b:c4:4c:
         61:9a:53:7b:43:86:dc:f9:4a:04:c0:86:f6:c0:8b:6b:96:ea:
         34:16:9d:af:99:e9:44:3e:6f:61:83:93:44:aa:80:5b:bc:30:
         aa:c9:e5:15:d8:8e:6f:6e:e3:11:c1:ac:d1:7a:d7:e3:1c:8c:
         57:f4:1d:43:4a:41:6a:0e:14:65:c1:80:a7:5d:00:a2:ee:fd:
         18:9d:5b:2d:3f:40:7a:41:64:d2:1f:0a:e6:9d:a2:c0:c1:5d:
         4b:4d:49:b2:ab:14:76:2a:bf:cb:29:3a:67:c6:92:9e:b4:e8:
         63:29:11:11:b7:fb:2a:bb:18:be:86:8f:5e:3e:27:92:b9:2c:
         14:2f:9d:52:a0:75:8c:d4:28:e4:ed:93:f5:00:84:66:6d:5d:
         e4:43:6a:81:74:b5:d6:c4:9b:3f:b5:85:20:ab:7f:06:5b:fc:
         00:3d:40:71:62:42:bf:44:79:d5:03:8d:02:1e:c8:17:af:f1:
         f2:ff:25:8f:e1:d1:88:a7:e8:c8:89:2b:92:f0:01:ef:5b:a6:
         fc:34:e5:39:83:97:27:d4:d3:46:33:3f:18:87:99:3a:60:93:
         5c:7d:54:2f:f6:15:87:48:5d:6d:ff:d8:50:59:3b:67:9a:95:
         54:64:c3:09:ec:15:9c:7c:4a:19:71:3a:2a:72:3b:f6:60:f4:
         26:40:d1:2d:e3:43:2f:3e:87:b8:e3:62:36:7d:03:9e:ad:9a:
         53:35:fe:bc:27:c8:d2:bf:df:cb:30:d3:b6:ca:6e:9a:2a:4b:
         85:f3:72:ad:41:6f:d1:87:c3:c9:2d:6f:75:aa:81:43:a0:84:
         a7:d2:6c:82:46:23:95:ba:62:cf:41:23:af:ff:59:72:c4:35:
         70:38:a4:db:ce:8b:83:6c:fc:37:34:fb:23:fb:fb:90:98:83:
         60:b9:c1:ea:d4:75:7e:3f:a8:80:8b:12:9f:3b:d5:0f:82:f3:
         53:2b:0d:da:72:b0:fa:4f:c5:6e:fa:db:8a:8c:c7:d6:7b:a5:
         12:56:60:dc:17:a1:e4:6e:fe:95:b8:f6:a4:b9:63:4c:e9:d7:
         32:f2:50:9c:81:cf:5e:b6:16:a3:6e:6c:fa:69:28:dd:9c:24:
         47:a5:22:bb:7c:dd:ea:90:c2:e2:00:48:16:b7:4e:1d:ce:57:
         17:90:be:b7:c4:0d:de:a7
-----BEGIN CERTIFICATE-----
MIIF/DCCA+SgAwIBAgIBATANBgkqhkiG9w0BAQsFADCBgDEVMBMGCgmSJomT8ixk
ARkWBWxvY2FsMRcwFQYKCZImiZPyLGQBGRYHbC1zcGFjZTEUMBIGA1UECgwLTC1T
cGFjZSBJbmMxGzAZBgNVBAsMEkwtU3BhY2UgU2lnbmluZyBDQTEbMBkGA1UEAwwS
TC1TcGFjZSBTaWduaW5nIENBMB4XDTIwMDYwMzE5MjkzNVoXDTIyMDYwMzE5Mjkz
NVowYzEVMBMGCgmSJomT8ixkARkWBWxvY2FsMRcwFQYKCZImiZPyLGQBGRYHbC1z
cGFjZTEUMBIGA1UECgwLTC1TcGFjZSBJbmMxGzAZBgNVBAMMEm50b3AubC1zcGFj
ZS5sb2NhbDCCAiIwDQYJKoZIhvcNAQEBBQADggIPADCCAgoCggIBAKblLvYyJXzV
4uBmR2D5320Gi4oZ1trlyk0H9LTE2AnF2GfNTo64rLzx+xz4wZo4IUjOc1223o11
fiblN9KCkQ5qa+fVx2ersvT7seUaa0FVJo5WmOlszs8RXkU4Tn44gQoZisVun93c
tq6rkNxNgoeQuAkWH7BWg5s6PVkwcWZ6mFEqftvfjrFQ7pMxotRSennhRBiayd8u
DnjJip/3opd8XQ+hIgCJc39EbmKRlDt+OC5wjhf075+BZxKudEhz2gU+hO18oyAr
dZeHLDxVolfnKB/OouUOUVQoSjPApdCk03/5I2Mc24uApJlJqTniENFW5a7r5K+t
FjXWuKIXiAyREEdOIr2De+mYarL20RjBtJDsUXCGxoPS5mdS4OsKtAQ92X6T1Zb0
itakYyLYa3nieBh3x88QR1d/MiLNj99Dm8VakZjqRMH2hicH/ewxR6RHmzOcdXUf
69pSnhCuymp0adzo5zTN07C8LknjIQvWp9bXWQIlazO8V0OntqDdLs0s8KpmHGMB
QnXd+ohlZuLbDytL6Sn3WTzS5pTMuFRd89ZiUBPLjdHhnMWKUMf69BwFaEShqTYu
Rz0UnmZkzunT8MRUP0stgaK+2oFJZC5D6mujj3GzW1nH/Zkhq4j4+9WVnVYKQZna
+1zjzjUFBR2pCGmGE0lBSX92COwrBq0NAgMBAAGjgZwwgZkwDgYDVR0PAQH/BAQD
AgWgMAkGA1UdEwQCMAAwHQYDVR0lBBYwFAYIKwYBBQUHAwEGCCsGAQUFBwMCMB0G
A1UdDgQWBBTeK6e41niNn7hlI1RfDnojNS+K8jAfBgNVHSMEGDAWgBRKEv+I6KDJ
urxIQ9buFAoM8H36gjAdBgNVHREEFjAUghJudG9wLmwtc3BhY2UubG9jYWwwDQYJ
KoZIhvcNAQELBQADggIBAHNdmIc8ohqxM4KvU/TRiRJ+d4T4tDFKHYvM34hzPH+e
3YPK+06MOBop2NJL0lwcF4YviIC4W5vFmnSuG7lyv7jXeTq+S0vETGGaU3tDhtz5
SgTAhvbAi2uW6jQWna+Z6UQ+b2GDk0SqgFu8MKrJ5RXYjm9u4xHBrNF61+McjFf0
HUNKQWoOFGXBgKddAKLu/RidWy0/QHpBZNIfCuadosDBXUtNSbKrFHYqv8spOmfG
kp606GMpERG3+yq7GL6Gj14+J5K5LBQvnVKgdYzUKOTtk/UAhGZtXeRDaoF0tdbE
mz+1hSCrfwZb/AA9QHFiQr9EedUDjQIeyBev8fL/JY/h0Yin6MiJK5LwAe9bpvw0
5TmDlyfU00YzPxiHmTpgk1x9VC/2FYdIXW3/2FBZO2ealVRkwwnsFZx8ShlxOipy
O/Zg9CZA0S3jQy8+h7jjYjZ9A56tmlM1/rwnyNK/38sw07bKbpoqS4Xzcq1Bb9GH
w8ktb3WqgUOghKfSbIJGI5W6Ys9BI6//WXLENXA4pNvOi4Ns/Dc0+yP7+5CYg2C5
werUdX4/qICLEp871Q+C81MrDdpysPpPxW7624qMx9Z7pRJWYNwXoeRu/pW49qS5
Y0zp1zLyUJyBz162FqNubPppKN2cJEelIrt83eqQwuIASBa3Th3OVxeQvrfEDd6n
-----END CERTIFICATE-----
